; Function Attrs: mustprogress uwtable
define void @_ZN6icu_7521RuleCharacterIterator11skipIgnoredEi(ptr nocapture noundef nonnull align 8 dereferenceable(36) %this, i32 noundef %options) local_unnamed_addr #2 align 2 {
entry:
  %and = and i32 %options, 4
  %cmp.not = icmp eq i32 %and, 0
  br i1 %cmp.not, label %if.end5, label %for.cond.preheader

for.cond.preheader:                               ; preds = %entry
  %buf.i = getelementptr inbounds i8, ptr %this, i64 24
  %bufPos.i = getelementptr inbounds i8, ptr %this, i64 32
  %pos.i = getelementptr inbounds i8, ptr %this, i64 8
  br label %for.cond

for.cond:                                         ; preds = %for.cond.backedge, %for.cond.preheader
  %0 = load ptr, ptr %buf.i, align 8
  %cmp.not.i = icmp eq ptr %0, null
  br i1 %cmp.not.i, label %if.else.i, label %if.then.i

if.then.i:                                        ; preds = %for.cond
  %1 = load i32, ptr %bufPos.i, align 8
  %call.i = tail call noundef i32 @_ZNK6icu_7513UnicodeString8char32AtEi(ptr noundef nonnull align 8 dereferenceable(64) %0, i32 noundef %1)
  br label %_ZNK6icu_7521RuleCharacterIterator8_currentEv.exit

if.else.i:                                        ; preds = %for.cond
  %2 = load ptr, ptr %pos.i, align 8
  %index.i.i = getelementptr inbounds i8, ptr %2, i64 8
  %3 = load i32, ptr %index.i.i, align 8
  %4 = load ptr, ptr %this, align 8
  %fUnion.i.i.i = getelementptr inbounds i8, ptr %4, i64 8
  %5 = load i16, ptr %fUnion.i.i.i, align 8
  %cmp.i.i.i = icmp slt i16 %5, 0
  %6 = ashr i16 %5, 5
  %shr.i.i.i = sext i16 %6 to i32
  %fLength.i.i = getelementptr inbounds i8, ptr %4, i64 12
  %7 = load i32, ptr %fLength.i.i, align 4
  %cond.i.i = select i1 %cmp.i.i.i, i32 %7, i32 %shr.i.i.i
  %cmp5.i = icmp slt i32 %3, %cond.i.i
  br i1 %cmp5.i, label %cond.true.i, label %_ZNK6icu_7521RuleCharacterIterator8_currentEv.exit

cond.true.i:                                      ; preds = %if.else.i
  %call7.i = tail call noundef i32 @_ZNK6icu_7513UnicodeString8char32AtEi(ptr noundef nonnull align 8 dereferenceable(64) %4, i32 noundef %3)
  br label %_ZNK6icu_7521RuleCharacterIterator8_currentEv.exit

_ZNK6icu_7521RuleCharacterIterator8_currentEv.exit: ; preds = %if.then.i, %if.else.i, %cond.true.i
  %retval.0.i = phi i32 [ %call.i, %if.then.i ], [ %call7.i, %cond.true.i ], [ -1, %if.else.i ]
  %call2 = tail call noundef signext i8 @_ZN6icu_7512PatternProps12isWhiteSpaceEi(i32 noundef %retval.0.i)
  %tobool.not = icmp eq i8 %call2, 0
  br i1 %tobool.not, label %if.end5, label %if.end

if.end:                                           ; preds = %_ZNK6icu_7521RuleCharacterIterator8_currentEv.exit
  %cmp4 = icmp ult i32 %retval.0.i, 65536
  %cond = select i1 %cmp4, i32 1, i32 2
  %8 = load ptr, ptr %buf.i, align 8
  %cmp.not.i3 = icmp eq ptr %8, null
  br i1 %cmp.not.i3, label %if.else.i11, label %if.then.i4

if.then.i4:                                       ; preds = %if.end
  %9 = load i32, ptr %bufPos.i, align 8
  %add.i = add nsw i32 %9, %cond
  store i32 %add.i, ptr %bufPos.i, align 8
  %fUnion.i.i.i6 = getelementptr inbounds i8, ptr %8, i64 8
  %10 = load i16, ptr %fUnion.i.i.i6, align 8
  %cmp.i.i.i7 = icmp slt i16 %10, 0
  %11 = ashr i16 %10, 5
  %shr.i.i.i8 = sext i16 %11 to i32
  %fLength.i.i9 = getelementptr inbounds i8, ptr %8, i64 12
  %12 = load i32, ptr %fLength.i.i9, align 4
  %cond.i.i10 = select i1 %cmp.i.i.i7, i32 %12, i32 %shr.i.i.i8
  %cmp4.i = icmp eq i32 %add.i, %cond.i.i10
  br i1 %cmp4.i, label %if.then5.i, label %for.cond.backedge

for.cond.backedge:                                ; preds = %if.then.i4, %if.then5.i, %if.else.i11, %if.then14.i
  br label %for.cond, !llvm.loop !6

if.then5.i:                                       ; preds = %if.then.i4
  store ptr null, ptr %buf.i, align 8
  br label %for.cond.backedge

if.else.i11:                                      ; preds = %if.end
  %13 = load ptr, ptr %pos.i, align 8
  %index.i.i13 = getelementptr inbounds i8, ptr %13, i64 8
  %14 = load i32, ptr %index.i.i13, align 8
  %add9.i = add nsw i32 %14, %cond
  store i32 %add9.i, ptr %index.i.i13, align 8
  %15 = load ptr, ptr %pos.i, align 8
  %index.i3.i = getelementptr inbounds i8, ptr %15, i64 8
  %16 = load i32, ptr %index.i3.i, align 8
  %17 = load ptr, ptr %this, align 8
  %fUnion.i.i4.i = getelementptr inbounds i8, ptr %17, i64 8
  %18 = load i16, ptr %fUnion.i.i4.i, align 8
  %cmp.i.i5.i = icmp slt i16 %18, 0
  %19 = ashr i16 %18, 5
  %shr.i.i6.i = sext i16 %19 to i32
  %fLength.i7.i = getelementptr inbounds i8, ptr %17, i64 12
  %20 = load i32, ptr %fLength.i7.i, align 4
  %cond.i8.i = select i1 %cmp.i.i5.i, i32 %20, i32 %shr.i.i6.i
  %cmp13.i = icmp sgt i32 %16, %cond.i8.i
  br i1 %cmp13.i, label %if.then14.i, label %for.cond.backedge

if.then14.i:                                      ; preds = %if.else.i11
  store i32 %cond.i8.i, ptr %index.i3.i, align 8
  br label %for.cond.backedge

if.end5:                                          ; preds = %_ZNK6icu_7521RuleCharacterIterator8_currentEv.exit, %entry
  ret void
}